target datalayout = "e-m:e-p270:32:32-p271:32:32-p272:64:64-i64:64-i128:128-f80:128-n8:16:32:64-S128"
target triple = "x86_64-pc-linux-gnu"

; Function Attrs: mustprogress uwtable
define internal noundef i32 @_ZL14luaB_pcallcontP9lua_Statei(ptr noundef %0, i32 noundef %1) #0 {
  %3 = alloca i32, align 4
  %4 = alloca ptr, align 8
  %5 = alloca i32, align 4
  store ptr %0, ptr %4, align 8
  store i32 %1, ptr %5, align 4
  %6 = load i32, ptr %5, align 4
  %7 = icmp eq i32 %6, 0
  br i1 %7, label %8, label %14

8:                                                ; preds = %2
  %9 = load ptr, ptr %4, align 8
  call void @_Z17lua_rawcheckstackP9lua_Statei(ptr noundef %9, i32 noundef 1)
  %10 = load ptr, ptr %4, align 8
  call void @_Z15lua_pushbooleanP9lua_Statei(ptr noundef %10, i32 noundef 1)
  %11 = load ptr, ptr %4, align 8
  call void @_Z10lua_insertP9lua_Statei(ptr noundef %11, i32 noundef 1)
  %12 = load ptr, ptr %4, align 8
  %13 = call noundef i32 @_Z10lua_gettopP9lua_State(ptr noundef %12)
  store i32 %13, ptr %3, align 4
  br label %18

14:                                               ; preds = %2
  %15 = load ptr, ptr %4, align 8
  call void @_Z17lua_rawcheckstackP9lua_Statei(ptr noundef %15, i32 noundef 1)
  %16 = load ptr, ptr %4, align 8
  call void @_Z15lua_pushbooleanP9lua_Statei(ptr noundef %16, i32 noundef 0)
  %17 = load ptr, ptr %4, align 8
  call void @_Z10lua_insertP9lua_Statei(ptr noundef %17, i32 noundef -2)
  store i32 2, ptr %3, align 4
  br label %18

18:                                               ; preds = %14, %8
  %19 = load i32, ptr %3, align 4
  ret i32 %19
}