; Function Attrs: mustprogress uwtable
define internal noundef i32 @_ZL14luaB_pcallcontP9lua_Statei(ptr noundef %0, i32 noundef %1) #0 {
  %3 = icmp eq i32 %1, 0
  tail call void @_Z17lua_rawcheckstackP9lua_Statei(ptr noundef %0, i32 noundef 1)
  br i1 %3, label %4, label %6

4:                                                ; preds = %2
  tail call void @_Z15lua_pushbooleanP9lua_Statei(ptr noundef %0, i32 noundef 1)
  tail call void @_Z10lua_insertP9lua_Statei(ptr noundef %0, i32 noundef 1)
  %5 = tail call noundef i32 @_Z10lua_gettopP9lua_State(ptr noundef %0)
  br label %7

6:                                                ; preds = %2
  tail call void @_Z15lua_pushbooleanP9lua_Statei(ptr noundef %0, i32 noundef 0)
  tail call void @_Z10lua_insertP9lua_Statei(ptr noundef %0, i32 noundef -2)
  br label %7

7:                                                ; preds = %6, %4
  %.0 = phi i32 [ %5, %4 ], [ 2, %6 ]
  ret i32 %.0
}